; Function Attrs: mustprogress nounwind uwtable
define internal fastcc void @"_ZN9__gnu_cxx5__ops10_Iter_predIZZN12_GLOBAL__N_117HandleTargetsModeERKSt6vectorINSt7__cxx1112basic_stringIcSt11char_traitsIcESaIcEEESaIS9_EER17cmExecutionStatusENK3$_5clEvEUlRKS9_E_ED2Ev"(ptr nocapture noundef nonnull readonly align 8 dereferenceable(24) %0) unnamed_addr #4 align 2 personality ptr @__gxx_personality_v0 {
  %2 = load ptr, ptr %0, align 8
  %3 = getelementptr inbounds i8, ptr %0, i64 8
  %4 = load ptr, ptr %3, align 8
  %.not4.i.i.i.i.i = icmp eq ptr %2, %4
  br i1 %.not4.i.i.i.i.i, label %_ZSt8_DestroyIP32cmInstallCommandFileSetArgumentsS0_EvT_S2_RSaIT0_E.exit.i.i, label %.lr.ph.i.i.i.i.i

.lr.ph.i.i.i.i.i:                                 ; preds = %1, %.lr.ph.i.i.i.i.i
  %.05.i.i.i.i.i = phi ptr [ %6, %.lr.ph.i.i.i.i.i ], [ %2, %1 ]
  %5 = getelementptr inbounds i8, ptr %.05.i.i.i.i.i, i64 440
  tail call void @_ZNSt7__cxx1112basic_stringIcSt11char_traitsIcESaIcEED1Ev(ptr noundef nonnull align 8 dereferenceable(32) %5) #19
  tail call void @_ZN25cmInstallCommandArgumentsD2Ev(ptr noundef nonnull align 8 dereferenceable(440) %.05.i.i.i.i.i) #19
  %6 = getelementptr inbounds i8, ptr %.05.i.i.i.i.i, i64 472
  %.not.i.i.i.i.i = icmp eq ptr %6, %4
  br i1 %.not.i.i.i.i.i, label %_ZSt8_DestroyIP32cmInstallCommandFileSetArgumentsS0_EvT_S2_RSaIT0_E.exitthread-pre-split.i.i, label %.lr.ph.i.i.i.i.i, !llvm.loop !42

_ZSt8_DestroyIP32cmInstallCommandFileSetArgumentsS0_EvT_S2_RSaIT0_E.exitthread-pre-split.i.i: ; preds = %.lr.ph.i.i.i.i.i
  %.pr.i.i = load ptr, ptr %0, align 8
  br label %_ZSt8_DestroyIP32cmInstallCommandFileSetArgumentsS0_EvT_S2_RSaIT0_E.exit.i.i

_ZSt8_DestroyIP32cmInstallCommandFileSetArgumentsS0_EvT_S2_RSaIT0_E.exit.i.i: ; preds = %_ZSt8_DestroyIP32cmInstallCommandFileSetArgumentsS0_EvT_S2_RSaIT0_E.exitthread-pre-split.i.i, %1
  %7 = phi ptr [ %.pr.i.i, %_ZSt8_DestroyIP32cmInstallCommandFileSetArgumentsS0_EvT_S2_RSaIT0_E.exitthread-pre-split.i.i ], [ %2, %1 ]
  %.not.i.i.i.i = icmp eq ptr %7, null
  br i1 %.not.i.i.i.i, label %"_ZZZN12_GLOBAL__N_117HandleTargetsModeERKSt6vectorINSt7__cxx1112basic_stringIcSt11char_traitsIcESaIcEEESaIS6_EER17cmExecutionStatusENK3$_5clEvENUlRKS6_E_D2Ev.exit", label %8

8:                                                ; preds = %_ZSt8_DestroyIP32cmInstallCommandFileSetArgumentsS0_EvT_S2_RSaIT0_E.exit.i.i
  tail call void @_ZdlPv(ptr noundef nonnull %7) #23
  br label %"_ZZZN12_GLOBAL__N_117HandleTargetsModeERKSt6vectorINSt7__cxx1112basic_stringIcSt11char_traitsIcESaIcEEESaIS6_EER17cmExecutionStatusENK3$_5clEvENUlRKS6_E_D2Ev.exit"

"_ZZZN12_GLOBAL__N_117HandleTargetsModeERKSt6vectorINSt7__cxx1112basic_stringIcSt11char_traitsIcESaIcEEESaIS6_EER17cmExecutionStatusENK3$_5clEvENUlRKS6_E_D2Ev.exit": ; preds = %_ZSt8_DestroyIP32cmInstallCommandFileSetArgumentsS0_EvT_S2_RSaIT0_E.exit.i.i, %8
  ret void
}